target datalayout = "e-m:e-p270:32:32-p271:32:32-p272:64:64-i64:64-i128:128-f80:128-n8:16:32:64-S128"
target triple = "x86_64-pc-linux-gnu"

%struct.re_registers = type { i32, i32, ptr, ptr }
%struct.RMatch = type { %struct.RBasic, i64, i64 }
%struct.RBasic = type { i64, i64 }
%struct.rb_matchext_struct = type { %struct.re_registers, ptr, i32 }

@rb_eTypeError = external global i64, align 8
@.str.76 = private unnamed_addr constant [24 x i8] c"uninitialized MatchData\00", align 1

; Function Attrs: inlinehint nounwind sspstrong willreturn memory(read) uwtable
define internal ptr @RMATCH_REGS(i64 noundef %0) #8 {
  %2 = alloca i64, align 8
  store i64 %0, ptr %2, align 8, !tbaa !11
  %3 = load i64, ptr %2, align 8, !tbaa !11
  %4 = inttoptr i64 %3 to ptr
  %5 = getelementptr i8, ptr %4, i64 32
  %6 = getelementptr inbounds nuw %struct.rb_matchext_struct, ptr %5, i32 0, i32 0
  ret ptr %6
}

; Function Attrs: nounwind sspstrong uwtable
define internal i64 @match_check(i64 noundef %0) #0 {
  %2 = alloca i64, align 8
  store i64 %0, ptr %2, align 8, !tbaa !11
  %3 = load i64, ptr %2, align 8, !tbaa !11
  %4 = inttoptr i64 %3 to ptr
  %5 = getelementptr inbounds nuw %struct.RMatch, ptr %4, i32 0, i32 2
  %6 = load i64, ptr %5, align 8, !tbaa !37
  %7 = icmp ne i64 %6, 0
  br i1 %7, label %10, label %8

8:                                                ; preds = %1
  %9 = load i64, ptr @rb_eTypeError, align 8, !tbaa !11
  call void (i64, ptr, ...) @rb_raise(i64 noundef %9, ptr noundef @.str.76) #30
  unreachable

10:                                               ; preds = %1
  %11 = load i64, ptr %2, align 8, !tbaa !11
  ret i64 %11
}

; Function Attrs: inlinehint nounwind sspstrong willreturn memory(none) uwtable
define internal zeroext i1 @RB_NIL_P(i64 noundef %0) #7 {
  %2 = alloca i64, align 8
  store i64 %0, ptr %2, align 8, !tbaa !11
  %3 = load i64, ptr %2, align 8, !tbaa !11
  %4 = icmp eq i64 %3, 4
  ret i1 %4
}

; Function Attrs: nounwind sspstrong uwtable
define dso_local i64 @rb_reg_nth_defined(i32 noundef %0, i64 noundef %1) #0 {
  %3 = alloca i64, align 8
  %4 = alloca i32, align 4
  %5 = alloca i64, align 8
  %6 = alloca ptr, align 8
  %7 = alloca i32, align 4
  store i32 %0, ptr %4, align 4, !tbaa !16
  store i64 %1, ptr %5, align 8, !tbaa !11
  call void @llvm.lifetime.start.p0(i64 8, ptr %6) #28
  %8 = load i64, ptr %5, align 8, !tbaa !11
  %9 = call zeroext i1 @RB_NIL_P(i64 noundef %8) #31
  br i1 %9, label %10, label %11

10:                                               ; preds = %2
  store i64 4, ptr %3, align 8
  store i32 1, ptr %7, align 4
  br label %45

11:                                               ; preds = %2
  %12 = load i64, ptr %5, align 8, !tbaa !11
  %13 = call i64 @match_check(i64 noundef %12)
  %14 = load i64, ptr %5, align 8, !tbaa !11
  %15 = call ptr @RMATCH_REGS(i64 noundef %14) #29
  store ptr %15, ptr %6, align 8, !tbaa !32
  %16 = load i32, ptr %4, align 4, !tbaa !16
  %17 = load ptr, ptr %6, align 8, !tbaa !32
  %18 = getelementptr inbounds nuw %struct.re_registers, ptr %17, i32 0, i32 1
  %19 = load i32, ptr %18, align 4, !tbaa !40
  %20 = icmp sge i32 %16, %19
  br i1 %20, label %21, label %22

21:                                               ; preds = %11
  store i64 4, ptr %3, align 8
  store i32 1, ptr %7, align 4
  br label %45

22:                                               ; preds = %11
  %23 = load i32, ptr %4, align 4, !tbaa !16
  %24 = icmp slt i32 %23, 0
  br i1 %24, label %25, label %35

25:                                               ; preds = %22
  %26 = load ptr, ptr %6, align 8, !tbaa !32
  %27 = getelementptr inbounds nuw %struct.re_registers, ptr %26, i32 0, i32 1
  %28 = load i32, ptr %27, align 4, !tbaa !40
  %29 = load i32, ptr %4, align 4, !tbaa !16
  %30 = add i32 %29, %28
  store i32 %30, ptr %4, align 4, !tbaa !16
  %31 = load i32, ptr %4, align 4, !tbaa !16
  %32 = icmp sle i32 %31, 0
  br i1 %32, label %33, label %34

33:                                               ; preds = %25
  store i64 4, ptr %3, align 8
  store i32 1, ptr %7, align 4
  br label %45

34:                                               ; preds = %25
  br label %35

35:                                               ; preds = %34, %22
  %36 = load ptr, ptr %6, align 8, !tbaa !32
  %37 = getelementptr inbounds nuw %struct.re_registers, ptr %36, i32 0, i32 2
  %38 = load ptr, ptr %37, align 8, !tbaa !80
  %39 = load i32, ptr %4, align 4, !tbaa !16
  %40 = sext i32 %39 to i64
  %41 = getelementptr i64, ptr %38, i64 %40
  %42 = load i64, ptr %41, align 8, !tbaa !11
  %43 = icmp ne i64 %42, -1
  %44 = select i1 %43, i64 20, i64 0
  store i64 %44, ptr %3, align 8
  store i32 1, ptr %7, align 4
  br label %45

45:                                               ; preds = %35, %33, %21, %10
  call void @llvm.lifetime.end.p0(i64 8, ptr %6) #28
  %46 = load i64, ptr %3, align 8
  ret i64 %46
}