; Function Attrs: nounwind sspstrong uwtable
define dso_local range(i64 0, 21) i64 @rb_reg_nth_defined(i32 noundef %0, i64 noundef %1) local_unnamed_addr #2 {
  %3 = icmp eq i64 %1, 4
  br i1 %3, label %24, label %4

4:                                                ; preds = %2
  %5 = inttoptr i64 %1 to ptr
  %6 = getelementptr inbounds nuw i8, ptr %5, i64 24
  %7 = load i64, ptr %6, align 8, !tbaa !31
  %.not.i = icmp eq i64 %7, 0
  br i1 %.not.i, label %8, label %match_check.exit

8:                                                ; preds = %4
  %9 = load i64, ptr @rb_eTypeError, align 8, !tbaa !18
  tail call void (i64, ptr, ...) @rb_raise(i64 noundef %9, ptr noundef nonnull @.str.76) #30
  unreachable

match_check.exit:                                 ; preds = %4
  %10 = getelementptr i8, ptr %5, i64 36
  %11 = load i32, ptr %10, align 4, !tbaa !40
  %.not = icmp slt i32 %0, %11
  br i1 %.not, label %12, label %24

12:                                               ; preds = %match_check.exit
  %13 = icmp slt i32 %0, 0
  br i1 %13, label %14, label %17

14:                                               ; preds = %12
  %15 = add i32 %11, %0
  %16 = icmp slt i32 %15, 1
  br i1 %16, label %24, label %17

17:                                               ; preds = %14, %12
  %.011 = phi i32 [ %15, %14 ], [ %0, %12 ]
  %18 = getelementptr i8, ptr %5, i64 40
  %19 = load ptr, ptr %18, align 8, !tbaa !92
  %20 = zext nneg i32 %.011 to i64
  %21 = getelementptr i64, ptr %19, i64 %20
  %22 = load i64, ptr %21, align 8, !tbaa !18
  %.not15 = icmp eq i64 %22, -1
  %23 = select i1 %.not15, i64 0, i64 20
  br label %24

24:                                               ; preds = %14, %match_check.exit, %2, %17
  %.0 = phi i64 [ %23, %17 ], [ 4, %2 ], [ 4, %match_check.exit ], [ 4, %14 ]
  ret i64 %.0
}